target datalayout = "e-m:e-p270:32:32-p271:32:32-p272:64:64-i64:64-i128:128-f80:128-n8:16:32:64-S128"
target triple = "x86_64-pc-linux-gnu"

%struct.expert_field = type { i32, i32 }
%struct._packet_info = type { ptr, ptr, i32, i32, %struct.nstime_t, %struct.nstime_t, %struct.nstime_t, i32, ptr, ptr, ptr, ptr, %struct._address, %struct._address, %struct._address, %struct._address, %struct._address, %struct._address, i32, ptr, i32, %struct.anon, i32, i32, i32, i32, ptr, i32, ptr, ptr, i16, i16, i32, i32, i16, i32, i32, ptr, ptr, ptr, i8, i8, i16, i16, i16, i32, i16, i16, ptr, ptr, ptr, ptr, ptr, i32 }
%struct.nstime_t = type { i64, i32 }
%struct._address = type { i32, i32, ptr, ptr }
%struct.anon = type { i8, [3 x i8] }

@hf_tcp_option_kind = internal global i32 0, align 4
@hf_tcp_option_len = internal global i32 0, align 4
@hf_tcp_option_user_to_granularity = internal global i32 0, align 4
@hf_tcp_option_user_to_val = internal global i32 0, align 4
@ett_tcp_option_user_to = internal global i32 0, align 4
@ei_tcp_opt_len_invalid = internal global %struct.expert_field zeroinitializer, align 4
@proto_tcp_option_user_to = internal global i32 0, align 4
@.str.799 = private unnamed_addr constant [2 x i8] c" \00", align 1
@.str.985 = private unnamed_addr constant [27 x i8] c"option length should be %u\00", align 1
@.str.1020 = private unnamed_addr constant [8 x i8] c"USER_TO\00", align 1

; Function Attrs: nounwind uwtable
define internal void @tcp_info_append_uint(ptr noundef %0, ptr noundef %1, i32 noundef %2) #0 {
  %4 = alloca ptr, align 8
  %5 = alloca ptr, align 8
  %6 = alloca i32, align 4
  store ptr %0, ptr %4, align 8
  store ptr %1, ptr %5, align 8
  store i32 %2, ptr %6, align 4
  %7 = load ptr, ptr %4, align 8
  %8 = getelementptr inbounds %struct._packet_info, ptr %7, i32 0, i32 1
  %9 = load ptr, ptr %8, align 8
  %10 = load ptr, ptr %5, align 8
  %11 = load i32, ptr %6, align 4
  call void @col_append_str_uint(ptr noundef %9, i32 noundef 25, ptr noundef %10, i32 noundef %11, ptr noundef @.str.799)
  ret void
}

; Function Attrs: nounwind uwtable
define internal i32 @tcp_option_len_check(ptr noundef %0, ptr noundef %1, i32 noundef %2, i32 noundef %3) #0 {
  %5 = alloca i32, align 4
  %6 = alloca ptr, align 8
  %7 = alloca ptr, align 8
  %8 = alloca i32, align 4
  %9 = alloca i32, align 4
  store ptr %0, ptr %6, align 8
  store ptr %1, ptr %7, align 8
  store i32 %2, ptr %8, align 4
  store i32 %3, ptr %9, align 4
  %10 = load i32, ptr %8, align 4
  %11 = load i32, ptr %9, align 4
  %12 = icmp ne i32 %10, %11
  br i1 %12, label %13, label %18

13:                                               ; preds = %4
  %14 = load ptr, ptr %7, align 8
  %15 = load ptr, ptr %6, align 8
  %16 = load i32, ptr %9, align 4
  %17 = call ptr (ptr, ptr, ptr, ptr, ...) @expert_add_info_format(ptr noundef %14, ptr noundef %15, ptr noundef @ei_tcp_opt_len_invalid, ptr noundef @.str.985, i32 noundef %16)
  store i32 0, ptr %5, align 4
  br label %19

18:                                               ; preds = %4
  store i32 1, ptr %5, align 4
  br label %19

19:                                               ; preds = %18, %13
  %20 = load i32, ptr %5, align 4
  ret i32 %20
}

; Function Attrs: nounwind uwtable
define internal i32 @dissect_tcpopt_user_to(ptr noundef %0, ptr noundef %1, ptr noundef %2, ptr noundef %3) #0 {
  %5 = alloca i32, align 4
  %6 = alloca ptr, align 8
  %7 = alloca ptr, align 8
  %8 = alloca ptr, align 8
  %9 = alloca ptr, align 8
  %10 = alloca ptr, align 8
  %11 = alloca ptr, align 8
  %12 = alloca ptr, align 8
  %13 = alloca i16, align 2
  %14 = alloca i32, align 4
  store ptr %0, ptr %6, align 8
  store ptr %1, ptr %7, align 8
  store ptr %2, ptr %8, align 8
  store ptr %3, ptr %9, align 8
  store i32 0, ptr %14, align 4
  %15 = load ptr, ptr %8, align 8
  %16 = load i32, ptr @proto_tcp_option_user_to, align 4
  %17 = load ptr, ptr %6, align 8
  %18 = load i32, ptr %14, align 4
  %19 = call ptr @proto_tree_add_item(ptr noundef %15, i32 noundef %16, ptr noundef %17, i32 noundef %18, i32 noundef -1, i32 noundef 0)
  store ptr %19, ptr %10, align 8
  %20 = load ptr, ptr %10, align 8
  %21 = load i32, ptr @ett_tcp_option_user_to, align 4
  %22 = call ptr @proto_item_add_subtree(ptr noundef %20, i32 noundef %21)
  store ptr %22, ptr %11, align 8
  %23 = load ptr, ptr %11, align 8
  %24 = load i32, ptr @hf_tcp_option_kind, align 4
  %25 = load ptr, ptr %6, align 8
  %26 = load i32, ptr %14, align 4
  %27 = call ptr @proto_tree_add_item(ptr noundef %23, i32 noundef %24, ptr noundef %25, i32 noundef %26, i32 noundef 1, i32 noundef 0)
  %28 = load ptr, ptr %11, align 8
  %29 = load i32, ptr @hf_tcp_option_len, align 4
  %30 = load ptr, ptr %6, align 8
  %31 = load i32, ptr %14, align 4
  %32 = add i32 %31, 1
  %33 = call ptr @proto_tree_add_item(ptr noundef %28, i32 noundef %29, ptr noundef %30, i32 noundef %32, i32 noundef 1, i32 noundef 0)
  store ptr %33, ptr %12, align 8
  %34 = load ptr, ptr %12, align 8
  %35 = load ptr, ptr %7, align 8
  %36 = load ptr, ptr %6, align 8
  %37 = call i32 @tvb_reported_length(ptr noundef %36)
  %38 = call i32 @tcp_option_len_check(ptr noundef %34, ptr noundef %35, i32 noundef %37, i32 noundef 4)
  %39 = icmp ne i32 %38, 0
  br i1 %39, label %43, label %40

40:                                               ; preds = %4
  %41 = load ptr, ptr %6, align 8
  %42 = call i32 @tvb_captured_length(ptr noundef %41)
  store i32 %42, ptr %5, align 4
  br label %68

43:                                               ; preds = %4
  %44 = load ptr, ptr %11, align 8
  %45 = load i32, ptr @hf_tcp_option_user_to_granularity, align 4
  %46 = load ptr, ptr %6, align 8
  %47 = load i32, ptr %14, align 4
  %48 = add i32 %47, 2
  %49 = call ptr @proto_tree_add_item(ptr noundef %44, i32 noundef %45, ptr noundef %46, i32 noundef %48, i32 noundef 2, i32 noundef 0)
  %50 = load ptr, ptr %6, align 8
  %51 = load i32, ptr %14, align 4
  %52 = add i32 %51, 2
  %53 = call zeroext i16 @tvb_get_ntohs(ptr noundef %50, i32 noundef %52)
  %54 = zext i16 %53 to i32
  %55 = and i32 %54, 32767
  %56 = trunc i32 %55 to i16
  store i16 %56, ptr %13, align 2
  %57 = load ptr, ptr %11, align 8
  %58 = load i32, ptr @hf_tcp_option_user_to_val, align 4
  %59 = load ptr, ptr %6, align 8
  %60 = load i32, ptr %14, align 4
  %61 = add i32 %60, 2
  %62 = call ptr @proto_tree_add_item(ptr noundef %57, i32 noundef %58, ptr noundef %59, i32 noundef %61, i32 noundef 2, i32 noundef 0)
  %63 = load ptr, ptr %7, align 8
  %64 = load i16, ptr %13, align 2
  %65 = zext i16 %64 to i32
  call void @tcp_info_append_uint(ptr noundef %63, ptr noundef @.str.1020, i32 noundef %65)
  %66 = load ptr, ptr %6, align 8
  %67 = call i32 @tvb_captured_length(ptr noundef %66)
  store i32 %67, ptr %5, align 4
  br label %68

68:                                               ; preds = %43, %40
  %69 = load i32, ptr %5, align 4
  ret i32 %69
}