; Function Attrs: nounwind uwtable
define internal i32 @dissect_tcpopt_user_to(ptr noundef %0, ptr noundef %1, ptr noundef %2, ptr readnone captures(none) %3) #0 {
  %5 = load i32, ptr @proto_tcp_option_user_to, align 4
  %6 = tail call ptr @proto_tree_add_item(ptr noundef %2, i32 noundef %5, ptr noundef %0, i32 noundef 0, i32 noundef -1, i32 noundef 0) #20
  %7 = load i32, ptr @ett_tcp_option_user_to, align 4
  %8 = tail call ptr @proto_item_add_subtree(ptr noundef %6, i32 noundef %7) #20
  %9 = load i32, ptr @hf_tcp_option_kind, align 4
  %10 = tail call ptr @proto_tree_add_item(ptr noundef %8, i32 noundef %9, ptr noundef %0, i32 noundef 0, i32 noundef 1, i32 noundef 0) #20
  %11 = load i32, ptr @hf_tcp_option_len, align 4
  %12 = tail call ptr @proto_tree_add_item(ptr noundef %8, i32 noundef %11, ptr noundef %0, i32 noundef 1, i32 noundef 1, i32 noundef 0) #20
  %13 = tail call i32 @tvb_reported_length(ptr noundef %0) #20
  %.not.i = icmp eq i32 %13, 4
  br i1 %.not.i, label %tcp_option_len_check.exit, label %14

14:                                               ; preds = %4
  %15 = tail call ptr (ptr, ptr, ptr, ptr, ...) @expert_add_info_format(ptr noundef %1, ptr noundef %12, ptr noundef nonnull @ei_tcp_opt_len_invalid, ptr noundef nonnull @.str.985, i32 noundef 4) #20
  br label %24

tcp_option_len_check.exit:                        ; preds = %4
  %16 = load i32, ptr @hf_tcp_option_user_to_granularity, align 4
  %17 = tail call ptr @proto_tree_add_item(ptr noundef %8, i32 noundef %16, ptr noundef %0, i32 noundef 2, i32 noundef 2, i32 noundef 0) #20
  %18 = tail call zeroext i16 @tvb_get_ntohs(ptr noundef %0, i32 noundef 2) #20
  %19 = and i16 %18, 32767
  %20 = load i32, ptr @hf_tcp_option_user_to_val, align 4
  %21 = tail call ptr @proto_tree_add_item(ptr noundef %8, i32 noundef %20, ptr noundef %0, i32 noundef 2, i32 noundef 2, i32 noundef 0) #20
  %22 = zext nneg i16 %19 to i32
  %23 = getelementptr i8, ptr %1, i64 8
  %.val = load ptr, ptr %23, align 8
  tail call void @col_append_str_uint(ptr noundef %.val, i32 noundef 25, ptr noundef nonnull @.str.1020, i32 noundef %22, ptr noundef nonnull @.str.799) #20
  br label %24

24:                                               ; preds = %tcp_option_len_check.exit, %14
  %25 = tail call i32 @tvb_captured_length(ptr noundef %0) #20
  ret i32 %25
}